	.file	"daxpy.c"
	.text
.Ltext0:
	.p2align 4,,15
	.globl	_Z5daxpyPiS_ijP8timespecS1_
	.type	_Z5daxpyPiS_ijP8timespecS1_, @function
_Z5daxpyPiS_ijP8timespecS1_:
.LFB50:
	.file 1 "../FuentesCreadas/daxpy.c"
	.loc 1 5 0
	.cfi_startproc
.LVL0:
	pushq	%r14
	.cfi_def_cfa_offset 16
	.cfi_offset 14, -16
	pushq	%r13
	.cfi_def_cfa_offset 24
	.cfi_offset 13, -24
	movq	%rsi, %r13
	pushq	%r12
	.cfi_def_cfa_offset 32
	.cfi_offset 12, -32
	pushq	%rbp
	.cfi_def_cfa_offset 40
	.cfi_offset 6, -40
	.loc 1 6 0
	movq	%r8, %rsi
.LVL1:
	.loc 1 5 0
	pushq	%rbx
	.cfi_def_cfa_offset 48
	.cfi_offset 3, -48
	.loc 1 5 0
	movl	%ecx, %ebp
	movq	%rdi, %rbx
	.loc 1 6 0
	xorl	%edi, %edi
.LVL2:
	.loc 1 5 0
	movl	%edx, %r12d
	movq	%r9, %r14
	.loc 1 6 0
	call	clock_gettime@PLT
.LVL3:
	xorl	%eax, %eax
	.loc 1 8 0
	testl	%ebp, %ebp
	je	.L3
.LVL4:
	.p2align 4,,10
	.p2align 3
.L5:
	.loc 1 9 0 discriminator 2
	movl	0(%r13,%rax,4), %esi
	imull	%r12d, %esi
	addl	%esi, (%rbx,%rax,4)
.LVL5:
	addq	$1, %rax
.LVL6:
	.loc 1 8 0 discriminator 2
	cmpl	%eax, %ebp
	ja	.L5
.L3:
	.loc 1 11 0
	popq	%rbx
	.cfi_def_cfa_offset 40
.LVL7:
	.loc 1 10 0
	movq	%r14, %rsi
	xorl	%edi, %edi
	.loc 1 11 0
	popq	%rbp
	.cfi_def_cfa_offset 32
.LVL8:
	popq	%r12
	.cfi_def_cfa_offset 24
.LVL9:
	popq	%r13
	.cfi_def_cfa_offset 16
.LVL10:
	popq	%r14
	.cfi_def_cfa_offset 8
.LVL11:
	.loc 1 10 0
	jmp	clock_gettime@PLT
.LVL12:
	.cfi_endproc
.LFE50:
	.size	_Z5daxpyPiS_ijP8timespecS1_, .-_Z5daxpyPiS_ijP8timespecS1_
	.section	.rodata.str1.8,"aMS",@progbits,1
	.align 8
.LC0:
	.string	"ERROR: Falta tamanio del vector y constante\n"
	.section	.rodata.str1.1,"aMS",@progbits,1
.LC2:
	.string	"y[0] = %i, y[%i] = %i\n"
.LC3:
	.string	"\nTiempo (seg.) = %11.9f\n"
	.section	.text.startup,"ax",@progbits
	.p2align 4,,15
	.globl	main
	.type	main, @function
main:
.LFB51:
	.loc 1 13 0
	.cfi_startproc
.LVL13:
	pushq	%r13
	.cfi_def_cfa_offset 16
	.cfi_offset 13, -16
	pushq	%r12
	.cfi_def_cfa_offset 24
	.cfi_offset 12, -24
	pushq	%rbp
	.cfi_def_cfa_offset 32
	.cfi_offset 6, -32
	pushq	%rbx
	.cfi_def_cfa_offset 40
	.cfi_offset 3, -40
	subq	$72, %rsp
	.cfi_def_cfa_offset 112
	.loc 1 13 0
	movq	%fs:40, %rax
	movq	%rax, 56(%rsp)
	xorl	%eax, %eax
	.loc 1 14 0
	cmpl	$2, %edi
	jle	.L18
	.loc 1 19 0
	movq	8(%rsi), %rdi
.LVL14:
	movq	%rsi, %rbx
	movl	$10, %edx
	xorl	%esi, %esi
.LVL15:
	call	strtol@PLT
.LVL16:
	.loc 1 20 0
	movq	16(%rbx), %rdi
	.loc 1 19 0
	movq	%rax, %r12
.LVL17:
	.loc 1 20 0
	xorl	%esi, %esi
	.loc 1 22 0
	movl	%r12d, %ebp
	.loc 1 20 0
	movl	$10, %edx
	.loc 1 22 0
	salq	$2, %rbp
	.loc 1 20 0
	call	strtol@PLT
.LVL18:
	.loc 1 22 0
	movq	%rbp, %rdi
	.loc 1 20 0
	movq	%rax, %r13
.LVL19:
	.loc 1 22 0
	call	malloc@PLT
.LVL20:
	.loc 1 23 0
	movq	%rbp, %rdi
	.loc 1 22 0
	movq	%rax, %rbx
.LVL21:
	.loc 1 23 0
	call	malloc@PLT
.LVL22:
	.loc 1 26 0
	testl	%r12d, %r12d
	.loc 1 23 0
	movq	%rax, %rbp
.LVL23:
	.loc 1 26 0
	je	.L12
	leal	2(%r12), %edx
	xorl	%esi, %esi
	xorl	%edi, %edi
	movl	$2, %eax
.LVL24:
	.p2align 4,,10
	.p2align 3
.L13:
	.loc 1 27 0 discriminator 2
	movl	%eax, (%rbx,%rsi)
	addl	$1, %eax
.LVL25:
	.loc 1 28 0 discriminator 2
	movl	%edi, 0(%rbp,%rsi)
.LVL26:
	addl	$2, %edi
	addq	$4, %rsi
	.loc 1 26 0 discriminator 2
	cmpl	%edx, %eax
	jne	.L13
.L12:
	.loc 1 34 0
	leaq	32(%rsp), %r9
	leaq	16(%rsp), %r8
	movl	%r12d, %ecx
	movl	%r13d, %edx
	movq	%rbp, %rsi
	movq	%rbx, %rdi
	call	_Z5daxpyPiS_ijP8timespecS1_
.LVL27:
	.loc 1 36 0
	movq	40(%rsp), %rax
	subq	24(%rsp), %rax
.LBB8:
.LBB9:
	.file 2 "/usr/include/x86_64-linux-gnu/bits/stdio2.h"
	.loc 2 104 0
	leaq	.LC2(%rip), %rsi
.LBE9:
.LBE8:
	.loc 1 36 0
	pxor	%xmm0, %xmm0
.LBB15:
.LBB10:
	.loc 2 104 0
	movl	(%rbx), %edx
.LBE10:
.LBE15:
	.loc 1 36 0
	pxor	%xmm1, %xmm1
.LBB16:
.LBB11:
	.loc 2 104 0
	movl	$1, %edi
.LBE11:
.LBE16:
	.loc 1 36 0
	cvtsi2sdq	%rax, %xmm0
	movq	32(%rsp), %rax
	subq	16(%rsp), %rax
	cvtsi2sdq	%rax, %xmm1
	.loc 1 38 0
	leal	-1(%r12), %eax
.LBB17:
.LBB12:
	.loc 2 104 0
	movl	(%rbx,%rax,4), %r8d
.LBE12:
.LBE17:
	.loc 1 38 0
	movq	%rax, %rcx
.LBB18:
.LBB13:
	.loc 2 104 0
	xorl	%eax, %eax
.LBE13:
.LBE18:
	.loc 1 36 0
	divsd	.LC1(%rip), %xmm0
	addsd	%xmm1, %xmm0
	movsd	%xmm0, 8(%rsp)
.LVL28:
.LBB19:
.LBB14:
	.loc 2 104 0
	call	__printf_chk@PLT
.LVL29:
.LBE14:
.LBE19:
.LBB20:
.LBB21:
	movsd	8(%rsp), %xmm0
	leaq	.LC3(%rip), %rsi
	movl	$1, %edi
	movl	$1, %eax
	call	__printf_chk@PLT
.LVL30:
.LBE21:
.LBE20:
	.loc 1 41 0
	movq	%rbx, %rdi
	call	free@PLT
.LVL31:
	.loc 1 42 0
	movq	%rbp, %rdi
	call	free@PLT
.LVL32:
	.loc 1 45 0
	xorl	%eax, %eax
	movq	56(%rsp), %rcx
	xorq	%fs:40, %rcx
	jne	.L19
	addq	$72, %rsp
	.cfi_remember_state
	.cfi_def_cfa_offset 40
	popq	%rbx
	.cfi_def_cfa_offset 32
.LVL33:
	popq	%rbp
	.cfi_def_cfa_offset 24
.LVL34:
	popq	%r12
	.cfi_def_cfa_offset 16
.LVL35:
	popq	%r13
	.cfi_def_cfa_offset 8
.LVL36:
	ret
.LVL37:
.L18:
	.cfi_restore_state
.LBB22:
.LBB23:
	.loc 2 98 0
	movq	stderr(%rip), %rcx
	leaq	.LC0(%rip), %rdi
.LVL38:
	movl	$44, %edx
	movl	$1, %esi
.LVL39:
	call	fwrite@PLT
.LVL40:
.LBE23:
.LBE22:
	.loc 1 16 0
	movl	$1, %edi
	call	exit@PLT
.LVL41:
.L19:
	.loc 1 45 0
	call	__stack_chk_fail@PLT
.LVL42:
	.cfi_endproc
.LFE51:
	.size	main, .-main
	.section	.rodata.cst8,"aM",@progbits,8
	.align 8
.LC1:
	.long	0
	.long	1104006501
	.text
.Letext0:
	.file 3 "/usr/lib/gcc/x86_64-linux-gnu/6/include/stddef.h"
	.file 4 "/usr/include/x86_64-linux-gnu/bits/types.h"
	.file 5 "/usr/include/stdio.h"
	.file 6 "/usr/include/libio.h"
	.file 7 "/usr/include/x86_64-linux-gnu/bits/sys_errlist.h"
	.file 8 "/usr/include/time.h"
	.file 9 "/usr/include/c++/6/cstdlib"
	.file 10 "/usr/include/x86_64-linux-gnu/c++/6/bits/c++config.h"
	.file 11 "/usr/include/stdlib.h"
	.file 12 "/usr/include/x86_64-linux-gnu/bits/stdlib-float.h"
	.file 13 "/usr/include/x86_64-linux-gnu/bits/stdlib-bsearch.h"
	.file 14 "/usr/include/x86_64-linux-gnu/bits/stdlib.h"
	.file 15 "/usr/include/c++/6/stdlib.h"
	.file 16 "<built-in>"
	.section	.note.GNU-stack,"",@progbits
